(dp1
S'failed'
p2
(lp3
S'1'
aS'2'
aS'13'
p4
aS'14'
p5
aS'24'
p6
aS'28'
p7
aS'42'
p8
aS'46'
p9
aS'52'
p10
aS'56'
p11
aS'60'
p12
aS'85'
p13
aS'94'
p14
aS'101'
p15
asS'source_names'
p16
(lp17
S'.'
asS'ids'
p18
(dp19
I1
(S'C:\\Users\\Daryoush\\PycharmProjects\\August24\\ExchangeSanityAuto\\TestExchange\\populargame_editoffer_eur_test.py'
S'ExchangeSanityAuto.TestExchange.populargame_editoffer_eur_test'
p20
S'popularpagetest.testsubmitEdit_BackOddsStake_offer_Eur'
tp21
sI2
(S'C:\\Users\\Daryoush\\PycharmProjects\\August24\\ExchangeSanityAuto\\TestExchange\\populargame_editoffer_eur_test.py'
g20
S'popularpagetest.testsubmitEdit_BackOdds_offer_Eur'
tp22
sI3
(S'C:\\Users\\Daryoush\\PycharmProjects\\August24\\ExchangeSanityAuto\\TestExchange\\populargame_editoffer_eur_test.py'
g20
S'popularpagetest.testsubmitEdit_BackStake_offer_Eur'
tp23
sI4
(S'C:\\Users\\Daryoush\\PycharmProjects\\August24\\ExchangeSanityAuto\\TestExchange\\populargame_editoffer_eur_test.py'
g20
S'popularpagetest.testsubmitEdit_LayOddsStake_offer_Eur'
tp24
sI5
(S'C:\\Users\\Daryoush\\PycharmProjects\\August24\\ExchangeSanityAuto\\TestExchange\\populargame_editoffer_eur_test.py'
g20
S'popularpagetest.testsubmitEdit_LayOdds_offer_Eur'
tp25
sI6
(S'C:\\Users\\Daryoush\\PycharmProjects\\August24\\ExchangeSanityAuto\\TestExchange\\populargame_editoffer_eur_test.py'
g20
S'popularpagetest.testsubmitEdit_LayStake_offer_Eur'
tp26
sI7
(S'C:\\Users\\Daryoush\\PycharmProjects\\August24\\ExchangeSanityAuto\\TestExchange\\populargame_editoffer_eur_test.py'
g20
S'popularpagetest.testsubmitEdit_LoseOddsStake_offer_Eur'
tp27
sI8
(S'C:\\Users\\Daryoush\\PycharmProjects\\August24\\ExchangeSanityAuto\\TestExchange\\populargame_editoffer_eur_test.py'
g20
S'popularpagetest.testsubmitEdit_LoseOdds_offer_Eur'
tp28
sI9
(S'C:\\Users\\Daryoush\\PycharmProjects\\August24\\ExchangeSanityAuto\\TestExchange\\populargame_editoffer_eur_test.py'
g20
S'popularpagetest.testsubmitEdit_LoseStake_offer_Eur'
tp29
sI10
(S'C:\\Users\\Daryoush\\PycharmProjects\\August24\\ExchangeSanityAuto\\TestExchange\\populargame_editoffer_eur_test.py'
g20
S'popularpagetest.testsubmitEdit_WinOddsStake_offer_Eur'
tp30
sI11
(S'C:\\Users\\Daryoush\\PycharmProjects\\August24\\ExchangeSanityAuto\\TestExchange\\populargame_editoffer_eur_test.py'
g20
S'popularpagetest.testsubmitEdit_WinOdds_offer_Eur'
tp31
sI12
(S'C:\\Users\\Daryoush\\PycharmProjects\\August24\\ExchangeSanityAuto\\TestExchange\\populargame_editoffer_eur_test.py'
g20
S'popularpagetest.testsubmitEdit_WinStake_offer_Eur'
tp32
sI13
(S'C:\\Users\\Daryoush\\PycharmProjects\\August24\\ExchangeSanityAuto\\TestExchange\\populargame_editoffer_gbp_test.py'
S'ExchangeSanityAuto.TestExchange.populargame_editoffer_gbp_test'
p33
S'popularpagetest.testsubmitEdit_BackOddsStake_offer_gbp'
tp34
sI14
(S'C:\\Users\\Daryoush\\PycharmProjects\\August24\\ExchangeSanityAuto\\TestExchange\\populargame_editoffer_gbp_test.py'
g33
S'popularpagetest.testsubmitEdit_BackOdds_offer_gbp'
tp35
sI15
(S'C:\\Users\\Daryoush\\PycharmProjects\\August24\\ExchangeSanityAuto\\TestExchange\\populargame_editoffer_gbp_test.py'
g33
S'popularpagetest.testsubmitEdit_BackStake_offer_gbp'
tp36
sI16
(S'C:\\Users\\Daryoush\\PycharmProjects\\August24\\ExchangeSanityAuto\\TestExchange\\populargame_editoffer_gbp_test.py'
g33
S'popularpagetest.testsubmitEdit_LayOddsStake_offer_gbp'
tp37
sI17
(S'C:\\Users\\Daryoush\\PycharmProjects\\August24\\ExchangeSanityAuto\\TestExchange\\populargame_editoffer_gbp_test.py'
g33
S'popularpagetest.testsubmitEdit_LayOdds_offer_gbp'
tp38
sI18
(S'C:\\Users\\Daryoush\\PycharmProjects\\August24\\ExchangeSanityAuto\\TestExchange\\populargame_editoffer_gbp_test.py'
g33
S'popularpagetest.testsubmitEdit_LayStake_offer_gbp'
tp39
sI19
(S'C:\\Users\\Daryoush\\PycharmProjects\\August24\\ExchangeSanityAuto\\TestExchange\\populargame_editoffer_gbp_test.py'
g33
S'popularpagetest.testsubmitEdit_LoseOddsStake_offer_gbp'
tp40
sI20
(S'C:\\Users\\Daryoush\\PycharmProjects\\August24\\ExchangeSanityAuto\\TestExchange\\populargame_editoffer_gbp_test.py'
g33
S'popularpagetest.testsubmitEdit_LoseOdds_offer_gbp'
tp41
sI21
(S'C:\\Users\\Daryoush\\PycharmProjects\\August24\\ExchangeSanityAuto\\TestExchange\\populargame_editoffer_gbp_test.py'
g33
S'popularpagetest.testsubmitEdit_LoseStake_offer_gbp'
tp42
sI22
(S'C:\\Users\\Daryoush\\PycharmProjects\\August24\\ExchangeSanityAuto\\TestExchange\\populargame_editoffer_gbp_test.py'
g33
S'popularpagetest.testsubmitEdit_WinOddsStake_offer_gbp'
tp43
sI23
(S'C:\\Users\\Daryoush\\PycharmProjects\\August24\\ExchangeSanityAuto\\TestExchange\\populargame_editoffer_gbp_test.py'
g33
S'popularpagetest.testsubmitEdit_WinOdds_offer_gbp'
tp44
sI24
(S'C:\\Users\\Daryoush\\PycharmProjects\\August24\\ExchangeSanityAuto\\TestExchange\\populargame_editoffer_gbp_test.py'
g33
S'popularpagetest.testsubmitEdit_WinStake_offer_gbp'
tp45
sI25
(S'C:\\Users\\Daryoush\\PycharmProjects\\August24\\ExchangeSanityAuto\\TestExchange\\populargame_editoffer_hkd_test.py'
S'ExchangeSanityAuto.TestExchange.populargame_editoffer_hkd_test'
p46
S'popularpagetest.testsubmitEdit_BackOddsStake_offer_hkd'
tp47
sI26
(S'C:\\Users\\Daryoush\\PycharmProjects\\August24\\ExchangeSanityAuto\\TestExchange\\populargame_editoffer_hkd_test.py'
g46
S'popularpagetest.testsubmitEdit_BackOdds_offer_hkd'
tp48
sI27
(S'C:\\Users\\Daryoush\\PycharmProjects\\August24\\ExchangeSanityAuto\\TestExchange\\populargame_editoffer_hkd_test.py'
g46
S'popularpagetest.testsubmitEdit_BackStake_offer_hkd'
tp49
sI28
(S'C:\\Users\\Daryoush\\PycharmProjects\\August24\\ExchangeSanityAuto\\TestExchange\\populargame_editoffer_hkd_test.py'
g46
S'popularpagetest.testsubmitEdit_LayOddsStake_offer_hkd'
tp50
sI29
(S'C:\\Users\\Daryoush\\PycharmProjects\\August24\\ExchangeSanityAuto\\TestExchange\\populargame_editoffer_hkd_test.py'
g46
S'popularpagetest.testsubmitEdit_LayOdds_offer_hkd'
tp51
sI30
(S'C:\\Users\\Daryoush\\PycharmProjects\\August24\\ExchangeSanityAuto\\TestExchange\\populargame_editoffer_hkd_test.py'
g46
S'popularpagetest.testsubmitEdit_LayStake_offer_hkd'
tp52
sI31
(S'C:\\Users\\Daryoush\\PycharmProjects\\August24\\ExchangeSanityAuto\\TestExchange\\populargame_editoffer_hkd_test.py'
g46
S'popularpagetest.testsubmitEdit_LoseOddsStake_offer_hkd'
tp53
sI32
(S'C:\\Users\\Daryoush\\PycharmProjects\\August24\\ExchangeSanityAuto\\TestExchange\\populargame_editoffer_hkd_test.py'
g46
S'popularpagetest.testsubmitEdit_LoseOdds_offer_hkd'
tp54
sI33
(S'C:\\Users\\Daryoush\\PycharmProjects\\August24\\ExchangeSanityAuto\\TestExchange\\populargame_editoffer_hkd_test.py'
g46
S'popularpagetest.testsubmitEdit_LoseStake_offer_hkd'
tp55
sI34
(S'C:\\Users\\Daryoush\\PycharmProjects\\August24\\ExchangeSanityAuto\\TestExchange\\populargame_editoffer_hkd_test.py'
g46
S'popularpagetest.testsubmitEdit_WinOddsStake_offer_hkd'
tp56
sI35
(S'C:\\Users\\Daryoush\\PycharmProjects\\August24\\ExchangeSanityAuto\\TestExchange\\populargame_editoffer_hkd_test.py'
g46
S'popularpagetest.testsubmitEdit_WinOdds_offer_hkd'
tp57
sI36
(S'C:\\Users\\Daryoush\\PycharmProjects\\August24\\ExchangeSanityAuto\\TestExchange\\populargame_editoffer_hkd_test.py'
g46
S'popularpagetest.testsubmitEdit_WinStake_offer_hkd'
tp58
sI37
(S'C:\\Users\\Daryoush\\PycharmProjects\\August24\\ExchangeSanityAuto\\TestExchange\\populargame_editoffer_usd_test.py'
S'ExchangeSanityAuto.TestExchange.populargame_editoffer_usd_test'
p59
S'popularpagetest.testsubmitEdit_BackOddsStake_offer_usd'
tp60
sI38
(S'C:\\Users\\Daryoush\\PycharmProjects\\August24\\ExchangeSanityAuto\\TestExchange\\populargame_editoffer_usd_test.py'
g59
S'popularpagetest.testsubmitEdit_BackOdds_offer_usd'
tp61
sI39
(S'C:\\Users\\Daryoush\\PycharmProjects\\August24\\ExchangeSanityAuto\\TestExchange\\populargame_editoffer_usd_test.py'
g59
S'popularpagetest.testsubmitEdit_BackStake_offer_usd'
tp62
sI40
(S'C:\\Users\\Daryoush\\PycharmProjects\\August24\\ExchangeSanityAuto\\TestExchange\\populargame_editoffer_usd_test.py'
g59
S'popularpagetest.testsubmitEdit_LayOddsStake_offer_usd'
tp63
sI41
(S'C:\\Users\\Daryoush\\PycharmProjects\\August24\\ExchangeSanityAuto\\TestExchange\\populargame_editoffer_usd_test.py'
g59
S'popularpagetest.testsubmitEdit_LayOdds_offer_usd'
tp64
sI42
(S'C:\\Users\\Daryoush\\PycharmProjects\\August24\\ExchangeSanityAuto\\TestExchange\\populargame_editoffer_usd_test.py'
g59
S'popularpagetest.testsubmitEdit_LayStake_offer_usd'
tp65
sI43
(S'C:\\Users\\Daryoush\\PycharmProjects\\August24\\ExchangeSanityAuto\\TestExchange\\populargame_editoffer_usd_test.py'
g59
S'popularpagetest.testsubmitEdit_LoseOddsStake_offer_usd'
tp66
sI44
(S'C:\\Users\\Daryoush\\PycharmProjects\\August24\\ExchangeSanityAuto\\TestExchange\\populargame_editoffer_usd_test.py'
g59
S'popularpagetest.testsubmitEdit_LoseOdds_offer_usd'
tp67
sI45
(S'C:\\Users\\Daryoush\\PycharmProjects\\August24\\ExchangeSanityAuto\\TestExchange\\populargame_editoffer_usd_test.py'
g59
S'popularpagetest.testsubmitEdit_LoseStake_offer_usd'
tp68
sI46
(S'C:\\Users\\Daryoush\\PycharmProjects\\August24\\ExchangeSanityAuto\\TestExchange\\populargame_editoffer_usd_test.py'
g59
S'popularpagetest.testsubmitEdit_WinOddsStake_offer_usd'
tp69
sI47
(S'C:\\Users\\Daryoush\\PycharmProjects\\August24\\ExchangeSanityAuto\\TestExchange\\populargame_editoffer_usd_test.py'
g59
S'popularpagetest.testsubmitEdit_WinOdds_offer_usd'
tp70
sI48
(S'C:\\Users\\Daryoush\\PycharmProjects\\August24\\ExchangeSanityAuto\\TestExchange\\populargame_editoffer_usd_test.py'
g59
S'popularpagetest.testsubmitEdit_WinStake_offer_usd'
tp71
sI49
(S'C:\\Users\\Daryoush\\PycharmProjects\\August24\\ExchangeSanityAuto\\TestExchange\\testpopulargame_editoffer_aud_test.py'
S'ExchangeSanityAuto.TestExchange.testpopulargame_editoffer_aud_test'
p72
S'popularpagetest.testsubmitEdit_BackOddsStake_offer_aud'
tp73
sI50
(S'C:\\Users\\Daryoush\\PycharmProjects\\August24\\ExchangeSanityAuto\\TestExchange\\testpopulargame_editoffer_aud_test.py'
g72
S'popularpagetest.testsubmitEdit_BackOdds_offer_aud'
tp74
sI51
(S'C:\\Users\\Daryoush\\PycharmProjects\\August24\\ExchangeSanityAuto\\TestExchange\\testpopulargame_editoffer_aud_test.py'
g72
S'popularpagetest.testsubmitEdit_BackStake_offer_aud'
tp75
sI52
(S'C:\\Users\\Daryoush\\PycharmProjects\\August24\\ExchangeSanityAuto\\TestExchange\\testpopulargame_editoffer_aud_test.py'
g72
S'popularpagetest.testsubmitEdit_LayOddsStake_offer_aud'
tp76
sI53
(S'C:\\Users\\Daryoush\\PycharmProjects\\August24\\ExchangeSanityAuto\\TestExchange\\testpopulargame_editoffer_aud_test.py'
g72
S'popularpagetest.testsubmitEdit_LayOdds_offer_aud'
tp77
sI54
(S'C:\\Users\\Daryoush\\PycharmProjects\\August24\\ExchangeSanityAuto\\TestExchange\\testpopulargame_editoffer_aud_test.py'
g72
S'popularpagetest.testsubmitEdit_LayStake_offer_aud'
tp78
sI55
(S'C:\\Users\\Daryoush\\PycharmProjects\\August24\\ExchangeSanityAuto\\TestExchange\\testpopulargame_editoffer_aud_test.py'
g72
S'popularpagetest.testsubmitEdit_LoseOddsStake_offer_aud'
tp79
sI56
(S'C:\\Users\\Daryoush\\PycharmProjects\\August24\\ExchangeSanityAuto\\TestExchange\\testpopulargame_editoffer_aud_test.py'
g72
S'popularpagetest.testsubmitEdit_LoseOdds_offer_aud'
tp80
sI57
(S'C:\\Users\\Daryoush\\PycharmProjects\\August24\\ExchangeSanityAuto\\TestExchange\\testpopulargame_editoffer_aud_test.py'
g72
S'popularpagetest.testsubmitEdit_LoseStake_offer_aud'
tp81
sI58
(S'C:\\Users\\Daryoush\\PycharmProjects\\August24\\ExchangeSanityAuto\\TestExchange\\testpopulargame_editoffer_aud_test.py'
g72
S'popularpagetest.testsubmitEdit_WinOddsStake_offer_aud'
tp82
sI59
(S'C:\\Users\\Daryoush\\PycharmProjects\\August24\\ExchangeSanityAuto\\TestExchange\\testpopulargame_editoffer_aud_test.py'
g72
S'popularpagetest.testsubmitEdit_WinOdds_offer_aud'
tp83
sI60
(S'C:\\Users\\Daryoush\\PycharmProjects\\August24\\ExchangeSanityAuto\\TestExchange\\testpopulargame_editoffer_aud_test.py'
g72
S'popularpagetest.testsubmitEdit_WinStake_offer_aud'
tp84
sI61
(S'C:\\Users\\Daryoush\\PycharmProjects\\August24\\ExchangeSanityAuto\\TestExchange\\testpopulargame_editoffer_cad_test.py'
S'ExchangeSanityAuto.TestExchange.testpopulargame_editoffer_cad_test'
p85
S'popularpagetest.testsubmitEdit_BackOddsStake_offer_cad'
tp86
sI62
(S'C:\\Users\\Daryoush\\PycharmProjects\\August24\\ExchangeSanityAuto\\TestExchange\\testpopulargame_editoffer_cad_test.py'
g85
S'popularpagetest.testsubmitEdit_BackOdds_offer_cad'
tp87
sI63
(S'C:\\Users\\Daryoush\\PycharmProjects\\August24\\ExchangeSanityAuto\\TestExchange\\testpopulargame_editoffer_cad_test.py'
g85
S'popularpagetest.testsubmitEdit_BackStake_offer_cad'
tp88
sI64
(S'C:\\Users\\Daryoush\\PycharmProjects\\August24\\ExchangeSanityAuto\\TestExchange\\testpopulargame_editoffer_cad_test.py'
g85
S'popularpagetest.testsubmitEdit_LayOddsStake_offer_cad'
tp89
sI65
(S'C:\\Users\\Daryoush\\PycharmProjects\\August24\\ExchangeSanityAuto\\TestExchange\\testpopulargame_editoffer_cad_test.py'
g85
S'popularpagetest.testsubmitEdit_LayOdds_offer_cad'
tp90
sI66
(S'C:\\Users\\Daryoush\\PycharmProjects\\August24\\ExchangeSanityAuto\\TestExchange\\testpopulargame_editoffer_cad_test.py'
g85
S'popularpagetest.testsubmitEdit_LayStake_offer_cad'
tp91
sI67
(S'C:\\Users\\Daryoush\\PycharmProjects\\August24\\ExchangeSanityAuto\\TestExchange\\testpopulargame_editoffer_cad_test.py'
g85
S'popularpagetest.testsubmitEdit_LoseOddsStake_offer_cad'
tp92
sI68
(S'C:\\Users\\Daryoush\\PycharmProjects\\August24\\ExchangeSanityAuto\\TestExchange\\testpopulargame_editoffer_cad_test.py'
g85
S'popularpagetest.testsubmitEdit_LoseOdds_offer_cad'
tp93
sI69
(S'C:\\Users\\Daryoush\\PycharmProjects\\August24\\ExchangeSanityAuto\\TestExchange\\testpopulargame_editoffer_cad_test.py'
g85
S'popularpagetest.testsubmitEdit_LoseStake_offer_cad'
tp94
sI70
(S'C:\\Users\\Daryoush\\PycharmProjects\\August24\\ExchangeSanityAuto\\TestExchange\\testpopulargame_editoffer_cad_test.py'
g85
S'popularpagetest.testsubmitEdit_WinOddsStake_offer_cad'
tp95
sI71
(S'C:\\Users\\Daryoush\\PycharmProjects\\August24\\ExchangeSanityAuto\\TestExchange\\testpopulargame_editoffer_cad_test.py'
g85
S'popularpagetest.testsubmitEdit_WinOdds_offer_cad'
tp96
sI72
(S'C:\\Users\\Daryoush\\PycharmProjects\\August24\\ExchangeSanityAuto\\TestExchange\\testpopulargame_editoffer_cad_test.py'
g85
S'popularpagetest.testsubmitEdit_WinStake_offer_cad'
tp97
sI73
(S'C:\\Users\\Daryoush\\PycharmProjects\\August24\\ExchangeSanityAuto\\TestExchange\\testpopularmarket_layoffer_test.py'
S'ExchangeSanityAuto.TestExchange.testpopularmarket_layoffer_test'
p98
S'popularpagetest.testsubmitlayofferAudduser'
tp99
sI74
(S'C:\\Users\\Daryoush\\PycharmProjects\\August24\\ExchangeSanityAuto\\TestExchange\\testpopularmarket_layoffer_test.py'
g98
S'popularpagetest.testsubmitlayofferCaduser'
tp100
sI75
(S'C:\\Users\\Daryoush\\PycharmProjects\\August24\\ExchangeSanityAuto\\TestExchange\\testpopularmarket_layoffer_test.py'
g98
S'popularpagetest.testsubmitlayofferEurouser'
tp101
sI76
(S'C:\\Users\\Daryoush\\PycharmProjects\\August24\\ExchangeSanityAuto\\TestExchange\\testpopularmarket_layoffer_test.py'
g98
S'popularpagetest.testsubmitlayofferGbpuser'
tp102
sI77
(S'C:\\Users\\Daryoush\\PycharmProjects\\August24\\ExchangeSanityAuto\\TestExchange\\testpopularmarket_layoffer_test.py'
g98
S'popularpagetest.testsubmitlayofferHkdduser'
tp103
sI78
(S'C:\\Users\\Daryoush\\PycharmProjects\\August24\\ExchangeSanityAuto\\TestExchange\\testpopularmarket_layoffer_test.py'
g98
S'popularpagetest.testsubmitlayofferUsdduser'
tp104
sI79
(S'C:\\Users\\Daryoush\\PycharmProjects\\August24\\ExchangeSanityAuto\\TestExchange\\testpopularmarket_loseoffer_test.py'
S'ExchangeSanityAuto.TestExchange.testpopularmarket_loseoffer_test'
p105
S'popularpagetest.testsubmitloseofferAudduser'
tp106
sI80
(S'C:\\Users\\Daryoush\\PycharmProjects\\August24\\ExchangeSanityAuto\\TestExchange\\testpopularmarket_loseoffer_test.py'
g105
S'popularpagetest.testsubmitloseofferCaduser'
tp107
sI81
(S'C:\\Users\\Daryoush\\PycharmProjects\\August24\\ExchangeSanityAuto\\TestExchange\\testpopularmarket_loseoffer_test.py'
g105
S'popularpagetest.testsubmitloseofferEurouser'
tp108
sI82
(S'C:\\Users\\Daryoush\\PycharmProjects\\August24\\ExchangeSanityAuto\\TestExchange\\testpopularmarket_loseoffer_test.py'
g105
S'popularpagetest.testsubmitloseofferGbpuser'
tp109
sI83
(S'C:\\Users\\Daryoush\\PycharmProjects\\August24\\ExchangeSanityAuto\\TestExchange\\testpopularmarket_loseoffer_test.py'
g105
S'popularpagetest.testsubmitloseofferHkdduser'
tp110
sI84
(S'C:\\Users\\Daryoush\\PycharmProjects\\August24\\ExchangeSanityAuto\\TestExchange\\testpopularmarket_loseoffer_test.py'
g105
S'popularpagetest.testsubmitloseofferUsdduser'
tp111
sI85
(S'C:\\Users\\Daryoush\\PycharmProjects\\August24\\ExchangeSanityAuto\\TestExchange\\testpopularmarket_matchoffer_test.py'
S'ExchangeSanityAuto.TestExchange.testpopularmarket_matchoffer_test'
S'popularpagematchbettest.testsubmitwin_lose_offer_match_Eurouser'
tp112
sI86
(S'C:\\Users\\Daryoush\\PycharmProjects\\August24\\ExchangeSanityAuto\\TestExchange\\testpopularmarket_winoffer_test.py'
S'ExchangeSanityAuto.TestExchange.testpopularmarket_winoffer_test'
p113
S'popularpagetest.testsubmitwinofferAudduser'
tp114
sI87
(S'C:\\Users\\Daryoush\\PycharmProjects\\August24\\ExchangeSanityAuto\\TestExchange\\testpopularmarket_winoffer_test.py'
g113
S'popularpagetest.testsubmitwinofferCaduser'
tp115
sI88
(S'C:\\Users\\Daryoush\\PycharmProjects\\August24\\ExchangeSanityAuto\\TestExchange\\testpopularmarket_winoffer_test.py'
g113
S'popularpagetest.testsubmitwinofferEurouser'
tp116
sI89
(S'C:\\Users\\Daryoush\\PycharmProjects\\August24\\ExchangeSanityAuto\\TestExchange\\testpopularmarket_winoffer_test.py'
g113
S'popularpagetest.testsubmitwinofferGbpuser'
tp117
sI90
(S'C:\\Users\\Daryoush\\PycharmProjects\\August24\\ExchangeSanityAuto\\TestExchange\\testpopularmarket_winoffer_test.py'
g113
S'popularpagetest.testsubmitwinofferHkdduser'
tp118
sI91
(S'C:\\Users\\Daryoush\\PycharmProjects\\August24\\ExchangeSanityAuto\\TestExchange\\testpopularmarket_winoffer_test.py'
g113
S'popularpagetest.testsubmitwinofferUsdduser'
tp119
sI92
(S'C:\\Users\\Daryoush\\PycharmProjects\\August24\\ExchangeSanityAuto\\TestExchange\\testpopularmarkets_backoffer_test.py'
S'ExchangeSanityAuto.TestExchange.testpopularmarkets_backoffer_test'
p120
S'popularpagetest.testsubmitbackofferAudduser'
tp121
sI93
(S'C:\\Users\\Daryoush\\PycharmProjects\\August24\\ExchangeSanityAuto\\TestExchange\\testpopularmarkets_backoffer_test.py'
g120
S'popularpagetest.testsubmitbackofferCaduser'
tp122
sI94
(S'C:\\Users\\Daryoush\\PycharmProjects\\August24\\ExchangeSanityAuto\\TestExchange\\testpopularmarkets_backoffer_test.py'
g120
S'popularpagetest.testsubmitbackofferEurouser'
tp123
sI95
(S'C:\\Users\\Daryoush\\PycharmProjects\\August24\\ExchangeSanityAuto\\TestExchange\\testpopularmarkets_backoffer_test.py'
g120
S'popularpagetest.testsubmitbackofferGbpuser'
tp124
sI96
(S'C:\\Users\\Daryoush\\PycharmProjects\\August24\\ExchangeSanityAuto\\TestExchange\\testpopularmarkets_backoffer_test.py'
g120
S'popularpagetest.testsubmitbackofferHkdduser'
tp125
sI97
(S'C:\\Users\\Daryoush\\PycharmProjects\\August24\\ExchangeSanityAuto\\TestExchange\\testpopularmarkets_backoffer_test.py'
g120
S'popularpagetest.testsubmitbackofferUsdduser'
tp126
sI98
(S'C:\\Users\\Daryoush\\PycharmProjects\\August24\\ExchangeSanityAuto\\TestExchange\\testpopularpagematchbet_aud_test.py'
S'ExchangeSanityAuto.TestExchange.testpopularpagematchbet_aud_test'
S'popularpagematchbettest.testsubmitwin_lose_offer_match_Eurouser'
tp127
sI99
(S'C:\\Users\\Daryoush\\PycharmProjects\\August24\\ExchangeSanityAuto\\TestExchange\\testpopularpagematchbet_cad_test.py'
S'ExchangeSanityAuto.TestExchange.testpopularpagematchbet_cad_test'
S'popularpagematchbettest.testsubmitwin_lose_offer_match_Eurouser'
tp128
sI100
(S'C:\\Users\\Daryoush\\PycharmProjects\\August24\\ExchangeSanityAuto\\TestExchange\\testpopularpagematchbet_eur_test.py'
S'ExchangeSanityAuto.TestExchange.testpopularpagematchbet_eur_test'
S'popularpagematchbettest.testsubmitwin_lose_offer_match_Eurouser'
tp129
sI101
(S'C:\\Users\\Daryoush\\PycharmProjects\\August24\\ExchangeSanityAuto\\TestExchange\\testpopularpagematchbet_gbp_test.py'
S'ExchangeSanityAuto.TestExchange.testpopularpagematchbet_gbp_test'
S'popularpagematchbettest.testsubmitwin_lose_offer_match_Eurouser'
tp130
sI102
(S'C:\\Users\\Daryoush\\PycharmProjects\\August24\\ExchangeSanityAuto\\TestExchange\\testpopularpagematchbet_hkd_test.py'
S'ExchangeSanityAuto.TestExchange.testpopularpagematchbet_hkd_test'
S'popularpagematchbettest.testsubmitwin_lose_offer_match_Eurouser'
tp131
sI103
(S'C:\\Users\\Daryoush\\PycharmProjects\\August24\\ExchangeSanityAuto\\TestExchange\\testpopularpagematchbet_usd_test.py'
S'ExchangeSanityAuto.TestExchange.testpopularpagematchbet_usd_test'
S'popularpagematchbettest.testsubmitwin_lose_offer_match_Eurouser'
tp132
ss.